target datalayout = "e-m:e-p270:32:32-p271:32:32-p272:64:64-i64:64-i128:128-f80:128-n8:16:32:64-S128"
target triple = "x86_64-pc-linux-gnu"

%struct.action = type { ptr, i32, %union.anon, ptr, ptr, ptr }
%union.anon = type { ptr }
%struct.lemon = type { ptr, ptr, ptr, i32, i32, i32, i32, i32, i32, i32, i32, i32, i32, i32, i32, ptr, i32, ptr, ptr, ptr, ptr, ptr, ptr, ptr, ptr, ptr, ptr, ptr, ptr, ptr, ptr, ptr, ptr, ptr, ptr, ptr, ptr, i32, i32, i32, i32, i32, i32, i32, i32, ptr }
%struct.rule = type { ptr, ptr, i32, i32, i32, ptr, ptr, i32, ptr, ptr, ptr, ptr, i32, i32, i32, i32, i32, i32, i32, ptr, ptr }
%struct.symbol = type { ptr, i32, i32, ptr, ptr, i32, i32, ptr, i32, i32, ptr, i32, ptr, i32, i32, i32, ptr }
%struct.state = type { ptr, ptr, i32, ptr, i32, i32, i32, i32, i32, ptr, i32 }

; Function Attrs: nounwind null_pointer_is_valid sspstrong uwtable
define hidden i32 @compute_action(ptr noundef %0, ptr noundef %1) #2 {
  %3 = alloca ptr, align 8
  %4 = alloca ptr, align 8
  %5 = alloca i32, align 4
  store ptr %0, ptr %3, align 8
  store ptr %1, ptr %4, align 8
  call void @llvm.lifetime.start.p0(i64 4, ptr %5) #18
  %6 = load ptr, ptr %4, align 8
  %7 = getelementptr inbounds nuw %struct.action, ptr %6, i32 0, i32 1
  %8 = load i32, ptr %7, align 8
  switch i32 %8, label %81 [
    i32 0, label %9
    i32 10, label %15
    i32 2, label %63
    i32 3, label %73
    i32 1, label %77
  ]

9:                                                ; preds = %2
  %10 = load ptr, ptr %4, align 8
  %11 = getelementptr inbounds nuw %struct.action, ptr %10, i32 0, i32 2
  %12 = load ptr, ptr %11, align 8
  %13 = getelementptr inbounds nuw %struct.state, ptr %12, i32 0, i32 2
  %14 = load i32, ptr %13, align 8
  store i32 %14, ptr %5, align 4
  br label %82

15:                                               ; preds = %2
  %16 = load ptr, ptr %4, align 8
  %17 = getelementptr inbounds nuw %struct.action, ptr %16, i32 0, i32 0
  %18 = load ptr, ptr %17, align 8
  %19 = getelementptr inbounds nuw %struct.symbol, ptr %18, i32 0, i32 1
  %20 = load i32, ptr %19, align 8
  %21 = load ptr, ptr %3, align 8
  %22 = getelementptr inbounds nuw %struct.lemon, ptr %21, i32 0, i32 8
  %23 = load i32, ptr %22, align 4
  %24 = icmp sge i32 %20, %23
  br i1 %24, label %25, label %52

25:                                               ; preds = %15
  %26 = load ptr, ptr %3, align 8
  %27 = getelementptr inbounds nuw %struct.lemon, ptr %26, i32 0, i32 17
  %28 = load ptr, ptr %27, align 8
  %29 = icmp eq ptr %28, null
  br i1 %29, label %42, label %30

30:                                               ; preds = %25
  %31 = load ptr, ptr %4, align 8
  %32 = getelementptr inbounds nuw %struct.action, ptr %31, i32 0, i32 0
  %33 = load ptr, ptr %32, align 8
  %34 = getelementptr inbounds nuw %struct.symbol, ptr %33, i32 0, i32 1
  %35 = load i32, ptr %34, align 8
  %36 = load ptr, ptr %3, align 8
  %37 = getelementptr inbounds nuw %struct.lemon, ptr %36, i32 0, i32 17
  %38 = load ptr, ptr %37, align 8
  %39 = getelementptr inbounds nuw %struct.symbol, ptr %38, i32 0, i32 1
  %40 = load i32, ptr %39, align 8
  %41 = icmp ne i32 %35, %40
  br i1 %41, label %42, label %52

42:                                               ; preds = %30, %25
  %43 = load ptr, ptr %3, align 8
  %44 = getelementptr inbounds nuw %struct.lemon, ptr %43, i32 0, i32 13
  %45 = load i32, ptr %44, align 8
  %46 = load ptr, ptr %4, align 8
  %47 = getelementptr inbounds nuw %struct.action, ptr %46, i32 0, i32 2
  %48 = load ptr, ptr %47, align 8
  %49 = getelementptr inbounds nuw %struct.rule, ptr %48, i32 0, i32 13
  %50 = load i32, ptr %49, align 4
  %51 = add i32 %45, %50
  store i32 %51, ptr %5, align 4
  br label %62

52:                                               ; preds = %30, %15
  %53 = load ptr, ptr %3, align 8
  %54 = getelementptr inbounds nuw %struct.lemon, ptr %53, i32 0, i32 9
  %55 = load i32, ptr %54, align 8
  %56 = load ptr, ptr %4, align 8
  %57 = getelementptr inbounds nuw %struct.action, ptr %56, i32 0, i32 2
  %58 = load ptr, ptr %57, align 8
  %59 = getelementptr inbounds nuw %struct.rule, ptr %58, i32 0, i32 13
  %60 = load i32, ptr %59, align 4
  %61 = add i32 %55, %60
  store i32 %61, ptr %5, align 4
  br label %62

62:                                               ; preds = %52, %42
  br label %82

63:                                               ; preds = %2
  %64 = load ptr, ptr %3, align 8
  %65 = getelementptr inbounds nuw %struct.lemon, ptr %64, i32 0, i32 13
  %66 = load i32, ptr %65, align 8
  %67 = load ptr, ptr %4, align 8
  %68 = getelementptr inbounds nuw %struct.action, ptr %67, i32 0, i32 2
  %69 = load ptr, ptr %68, align 8
  %70 = getelementptr inbounds nuw %struct.rule, ptr %69, i32 0, i32 13
  %71 = load i32, ptr %70, align 4
  %72 = add i32 %66, %71
  store i32 %72, ptr %5, align 4
  br label %82

73:                                               ; preds = %2
  %74 = load ptr, ptr %3, align 8
  %75 = getelementptr inbounds nuw %struct.lemon, ptr %74, i32 0, i32 10
  %76 = load i32, ptr %75, align 4
  store i32 %76, ptr %5, align 4
  br label %82

77:                                               ; preds = %2
  %78 = load ptr, ptr %3, align 8
  %79 = getelementptr inbounds nuw %struct.lemon, ptr %78, i32 0, i32 11
  %80 = load i32, ptr %79, align 8
  store i32 %80, ptr %5, align 4
  br label %82

81:                                               ; preds = %2
  store i32 -1, ptr %5, align 4
  br label %82

82:                                               ; preds = %81, %77, %73, %63, %62, %9
  %83 = load i32, ptr %5, align 4
  call void @llvm.lifetime.end.p0(i64 4, ptr %5) #18
  ret i32 %83
}