; Function Attrs: mustprogress nofree norecurse nosync nounwind null_pointer_is_valid sspstrong willreturn memory(read, inaccessiblemem: none) uwtable
define hidden i32 @compute_action(ptr noundef readonly captures(none) %0, ptr noundef readonly captures(none) %1) local_unnamed_addr #19 {
  %3 = getelementptr inbounds nuw i8, ptr %1, i64 8
  %4 = load i32, ptr %3, align 8
  switch i32 %4, label %53 [
    i32 0, label %5
    i32 10, label %10
    i32 2, label %39
    i32 3, label %47
    i32 1, label %50
  ]

5:                                                ; preds = %2
  %6 = getelementptr inbounds nuw i8, ptr %1, i64 16
  %7 = load ptr, ptr %6, align 8
  %8 = getelementptr inbounds nuw i8, ptr %7, i64 16
  %9 = load i32, ptr %8, align 8
  br label %53

10:                                               ; preds = %2
  %11 = load ptr, ptr %1, align 8
  %12 = getelementptr inbounds nuw i8, ptr %11, i64 8
  %13 = load i32, ptr %12, align 8
  %14 = getelementptr inbounds nuw i8, ptr %0, i64 44
  %15 = load i32, ptr %14, align 4
  %.not = icmp slt i32 %13, %15
  br i1 %.not, label %31, label %16

16:                                               ; preds = %10
  %17 = getelementptr inbounds nuw i8, ptr %0, i64 88
  %18 = load ptr, ptr %17, align 8
  %19 = icmp eq ptr %18, null
  br i1 %19, label %23, label %20

20:                                               ; preds = %16
  %21 = getelementptr inbounds nuw i8, ptr %18, i64 8
  %22 = load i32, ptr %21, align 8
  %.not17 = icmp eq i32 %13, %22
  br i1 %.not17, label %31, label %23

23:                                               ; preds = %20, %16
  %24 = getelementptr inbounds nuw i8, ptr %0, i64 64
  %25 = load i32, ptr %24, align 8
  %26 = getelementptr inbounds nuw i8, ptr %1, i64 16
  %27 = load ptr, ptr %26, align 8
  %28 = getelementptr inbounds nuw i8, ptr %27, i64 92
  %29 = load i32, ptr %28, align 4
  %30 = add i32 %29, %25
  br label %53

31:                                               ; preds = %20, %10
  %32 = getelementptr inbounds nuw i8, ptr %0, i64 48
  %33 = load i32, ptr %32, align 8
  %34 = getelementptr inbounds nuw i8, ptr %1, i64 16
  %35 = load ptr, ptr %34, align 8
  %36 = getelementptr inbounds nuw i8, ptr %35, i64 92
  %37 = load i32, ptr %36, align 4
  %38 = add i32 %37, %33
  br label %53

39:                                               ; preds = %2
  %40 = getelementptr inbounds nuw i8, ptr %0, i64 64
  %41 = load i32, ptr %40, align 8
  %42 = getelementptr inbounds nuw i8, ptr %1, i64 16
  %43 = load ptr, ptr %42, align 8
  %44 = getelementptr inbounds nuw i8, ptr %43, i64 92
  %45 = load i32, ptr %44, align 4
  %46 = add i32 %45, %41
  br label %53

47:                                               ; preds = %2
  %48 = getelementptr inbounds nuw i8, ptr %0, i64 52
  %49 = load i32, ptr %48, align 4
  br label %53

50:                                               ; preds = %2
  %51 = getelementptr inbounds nuw i8, ptr %0, i64 56
  %52 = load i32, ptr %51, align 8
  br label %53

53:                                               ; preds = %2, %23, %31, %50, %47, %39, %5
  %.0 = phi i32 [ %52, %50 ], [ %49, %47 ], [ %46, %39 ], [ %30, %23 ], [ %38, %31 ], [ %9, %5 ], [ -1, %2 ]
  ret i32 %.0
}